; Function Attrs: nounwind uwtable
define ptr @l_Lean_Meta_findLocalDeclWithType_x3f(ptr noundef %0, ptr noundef %1, ptr noundef %2, ptr noundef %3, ptr noundef %4, ptr noundef %5) local_unnamed_addr #0 {
  %7 = getelementptr inbounds nuw i8, ptr %1, i64 24
  %8 = load ptr, ptr %7, align 8, !tbaa !11
  %9 = ptrtoint ptr %8 to i64
  %10 = and i64 %9, 1
  %.not = icmp eq i64 %10, 0
  br i1 %.not, label %11, label %lean_inc.exit

11:                                               ; preds = %6
  %.val.i = load i32, ptr %8, align 4, !tbaa !5
  %12 = icmp sgt i32 %.val.i, 0
  br i1 %12, label %13, label %15, !prof !10

13:                                               ; preds = %11
  %14 = add nuw i32 %.val.i, 1
  store i32 %14, ptr %8, align 4, !tbaa !5
  br label %20

15:                                               ; preds = %11
  %.not.i11 = icmp eq i32 %.val.i, 0
  br i1 %.not.i11, label %20, label %16

16:                                               ; preds = %15
  tail call void @lean_inc_ref_cold(ptr noundef nonnull %8) #4
  br label %20

lean_inc.exit:                                    ; preds = %6
  %17 = getelementptr inbounds nuw i8, ptr %8, i64 16
  %18 = load ptr, ptr %17, align 8, !tbaa !11
  %19 = tail call ptr @l_Lean_PersistentArray_findSomeRevM_x3f___at_Lean_Meta_findLocalDeclWithType_x3f___spec__2(ptr noundef %0, ptr noundef %18, ptr noundef nonnull %1, ptr noundef %2, ptr noundef %3, ptr noundef %4, ptr noundef %5)
  br label %lean_dec.exit

20:                                               ; preds = %16, %15, %13
  %21 = getelementptr inbounds nuw i8, ptr %8, i64 16
  %22 = load ptr, ptr %21, align 8, !tbaa !11
  %23 = tail call ptr @l_Lean_PersistentArray_findSomeRevM_x3f___at_Lean_Meta_findLocalDeclWithType_x3f___spec__2(ptr noundef %0, ptr noundef %22, ptr noundef nonnull %1, ptr noundef %2, ptr noundef %3, ptr noundef %4, ptr noundef %5)
  %24 = load i32, ptr %8, align 4, !tbaa !5
  %25 = icmp sgt i32 %24, 1
  br i1 %25, label %26, label %28, !prof !10

26:                                               ; preds = %20
  %27 = add nsw i32 %24, -1
  store i32 %27, ptr %8, align 4, !tbaa !5
  br label %lean_dec.exit

28:                                               ; preds = %20
  %.not.i = icmp eq i32 %24, 0
  br i1 %.not.i, label %lean_dec.exit, label %29

29:                                               ; preds = %28
  tail call void @lean_dec_ref_cold(ptr noundef nonnull %8) #4
  br label %lean_dec.exit

lean_dec.exit:                                    ; preds = %29, %28, %26, %lean_inc.exit
  %30 = phi ptr [ %19, %lean_inc.exit ], [ %23, %26 ], [ %23, %28 ], [ %23, %29 ]
  ret ptr %30
}